target datalayout = "e-m:e-p270:32:32-p271:32:32-p272:64:64-i64:64-i128:128-f80:128-n8:16:32:64-S128"
target triple = "x86_64-pc-linux-gnu"

; Function Attrs: mustprogress uwtable
define void @_ZN3gmx12closeLogFileEP8t_fileio(ptr noundef %0) #0 {
  %2 = alloca ptr, align 8
  store ptr %0, ptr %2, align 8
  %3 = load ptr, ptr %2, align 8
  %4 = icmp ne ptr %3, null
  br i1 %4, label %5, label %8

5:                                                ; preds = %1
  call void @_Z22gmx_fatal_set_log_fileP8_IO_FILE(ptr noundef null)
  %6 = load ptr, ptr %2, align 8
  %7 = call noundef i32 @_Z13gmx_fio_closeP8t_fileio(ptr noundef %6)
  br label %8

8:                                                ; preds = %5, %1
  ret void
}