; Function Attrs: mustprogress uwtable
define void @_ZN3gmx12closeLogFileEP8t_fileio(ptr noundef %0) local_unnamed_addr #0 {
  %.not = icmp eq ptr %0, null
  br i1 %.not, label %4, label %2

2:                                                ; preds = %1
  tail call void @_Z22gmx_fatal_set_log_fileP8_IO_FILE(ptr noundef null)
  %3 = tail call noundef i32 @_Z13gmx_fio_closeP8t_fileio(ptr noundef nonnull %0)
  br label %4

4:                                                ; preds = %2, %1
  ret void
}